; Function Attrs: mustprogress uwtable
define noundef nonnull align 8 dereferenceable(8) ptr @_ZN32pxrInternal_v0_24__pxrReserved__29PcpIdentifierFormatIdentifierERSo(ptr noundef nonnull returned align 8 dereferenceable(8) %0) #0 {
  %2 = load ptr, ptr %0, align 8
  %3 = getelementptr i8, ptr %2, i64 -24
  %4 = load i64, ptr %3, align 8
  %5 = getelementptr inbounds i8, ptr %0, i64 %4
  %6 = load atomic i8, ptr @_ZGVZN32pxrInternal_v0_24__pxrReserved__L25Pcp_IdentifierFormatIndexEvE5index acquire, align 8
  %7 = icmp eq i8 %6, 0
  br i1 %7, label %8, label %_ZN32pxrInternal_v0_24__pxrReserved__L25Pcp_IdentifierFormatIndexEv.exit, !prof !14

8:                                                ; preds = %1
  %9 = tail call i32 @__cxa_guard_acquire(ptr nonnull @_ZGVZN32pxrInternal_v0_24__pxrReserved__L25Pcp_IdentifierFormatIndexEvE5index) #14
  %.not.i = icmp eq i32 %9, 0
  br i1 %.not.i, label %_ZN32pxrInternal_v0_24__pxrReserved__L25Pcp_IdentifierFormatIndexEv.exit, label %10

10:                                               ; preds = %8
  %11 = tail call noundef i32 @_ZNSt8ios_base6xallocEv() #14
  %12 = sext i32 %11 to i64
  store i64 %12, ptr @_ZZN32pxrInternal_v0_24__pxrReserved__L25Pcp_IdentifierFormatIndexEvE5index, align 8
  tail call void @__cxa_guard_release(ptr nonnull @_ZGVZN32pxrInternal_v0_24__pxrReserved__L25Pcp_IdentifierFormatIndexEvE5index) #14
  br label %_ZN32pxrInternal_v0_24__pxrReserved__L25Pcp_IdentifierFormatIndexEv.exit

_ZN32pxrInternal_v0_24__pxrReserved__L25Pcp_IdentifierFormatIndexEv.exit: ; preds = %1, %8, %10
  %13 = load i64, ptr @_ZZN32pxrInternal_v0_24__pxrReserved__L25Pcp_IdentifierFormatIndexEvE5index, align 8
  %14 = trunc nsw i64 %13 to i32
  %15 = getelementptr inbounds nuw i8, ptr %5, i64 192
  %16 = load i32, ptr %15, align 8
  %17 = icmp ugt i32 %16, %14
  br i1 %17, label %18, label %23

18:                                               ; preds = %_ZN32pxrInternal_v0_24__pxrReserved__L25Pcp_IdentifierFormatIndexEv.exit
  %19 = getelementptr inbounds nuw i8, ptr %5, i64 200
  %20 = load ptr, ptr %19, align 8
  %sext = shl i64 %13, 32
  %21 = ashr exact i64 %sext, 28
  %22 = getelementptr inbounds i8, ptr %20, i64 %21
  br label %_ZNSt8ios_base5iwordEi.exit

23:                                               ; preds = %_ZN32pxrInternal_v0_24__pxrReserved__L25Pcp_IdentifierFormatIndexEv.exit
  %24 = tail call noundef nonnull align 8 dereferenceable(16) ptr @_ZNSt8ios_base13_M_grow_wordsEib(ptr noundef nonnull align 8 dereferenceable(216) %5, i32 noundef %14, i1 noundef zeroext true)
  br label %_ZNSt8ios_base5iwordEi.exit

_ZNSt8ios_base5iwordEi.exit:                      ; preds = %18, %23
  %25 = phi ptr [ %22, %18 ], [ %24, %23 ]
  %26 = getelementptr inbounds nuw i8, ptr %25, i64 8
  store i64 0, ptr %26, align 8
  ret ptr %0
}